target datalayout = "e-m:e-p270:32:32-p271:32:32-p272:64:64-i64:64-i128:128-f80:128-n8:16:32:64-S128"
target triple = "x86_64-pc-linux-gnu"

%struct.If_Cut_t_ = type <{ float, float, float, float, i32, i32, i32, i64, [0 x i32] }>
%struct.If_Obj_t_ = type { i32, i32, i32, i32, i32, i32, ptr, ptr, ptr, float, float, float, %union.anon, ptr, %struct.If_Cut_t_ }
%union.anon = type { ptr }

; Function Attrs: inlinehint nounwind uwtable
define internal ptr @If_ObjFanin1(ptr noundef %0) #2 {
  %2 = alloca ptr, align 8
  store ptr %0, ptr %2, align 8, !tbaa !99
  %3 = load ptr, ptr %2, align 8, !tbaa !99
  %4 = getelementptr inbounds nuw %struct.If_Obj_t_, ptr %3, i32 0, i32 7
  %5 = load ptr, ptr %4, align 8, !tbaa !130
  ret ptr %5
}

; Function Attrs: inlinehint nounwind uwtable
define internal ptr @If_ObjFanin0(ptr noundef %0) #2 {
  %2 = alloca ptr, align 8
  store ptr %0, ptr %2, align 8, !tbaa !99
  %3 = load ptr, ptr %2, align 8, !tbaa !99
  %4 = getelementptr inbounds nuw %struct.If_Obj_t_, ptr %3, i32 0, i32 6
  %5 = load ptr, ptr %4, align 8, !tbaa !129
  ret ptr %5
}

; Function Attrs: inlinehint nounwind uwtable
define internal i32 @If_ObjIsCi(ptr noundef %0) #2 {
  %2 = alloca ptr, align 8
  store ptr %0, ptr %2, align 8, !tbaa !99
  %3 = load ptr, ptr %2, align 8, !tbaa !99
  %4 = load i32, ptr %3, align 8
  %5 = and i32 %4, 15
  %6 = icmp eq i32 %5, 2
  %7 = zext i1 %6 to i32
  ret i32 %7
}

; Function Attrs: nounwind uwtable
define i32 @If_CutGetCone_rec(ptr noundef %0, ptr noundef %1, ptr noundef %2) #0 {
  %4 = alloca i32, align 4
  %5 = alloca ptr, align 8
  %6 = alloca ptr, align 8
  %7 = alloca ptr, align 8
  %8 = alloca ptr, align 8
  %9 = alloca i32, align 4
  %10 = alloca i32, align 4
  %11 = alloca i32, align 4
  store ptr %0, ptr %5, align 8, !tbaa !35
  store ptr %1, ptr %6, align 8, !tbaa !99
  store ptr %2, ptr %7, align 8, !tbaa !15
  call void @llvm.lifetime.start.p0(i64 8, ptr %8) #9
  call void @llvm.lifetime.start.p0(i64 4, ptr %9) #9
  call void @llvm.lifetime.start.p0(i64 4, ptr %10) #9
  store i32 0, ptr %9, align 4, !tbaa !8
  br label %12

12:                                               ; preds = %47, %3
  %13 = load i32, ptr %9, align 4, !tbaa !8
  %14 = load ptr, ptr %7, align 8, !tbaa !15
  %15 = getelementptr inbounds nuw %struct.If_Cut_t_, ptr %14, i32 0, i32 7
  %16 = load i64, ptr %15, align 4
  %17 = lshr i64 %16, 24
  %18 = and i64 %17, 255
  %19 = trunc i64 %18 to i32
  %20 = icmp slt i32 %13, %19
  br i1 %20, label %21, label %50

21:                                               ; preds = %12
  %22 = load ptr, ptr %7, align 8, !tbaa !15
  %23 = getelementptr inbounds nuw %struct.If_Cut_t_, ptr %22, i32 0, i32 8
  %24 = load i32, ptr %9, align 4, !tbaa !8
  %25 = sext i32 %24 to i64
  %26 = getelementptr inbounds [0 x i32], ptr %23, i64 0, i64 %25
  %27 = load i32, ptr %26, align 4, !tbaa !8
  %28 = load ptr, ptr %6, align 8, !tbaa !99
  %29 = getelementptr inbounds nuw %struct.If_Obj_t_, ptr %28, i32 0, i32 1
  %30 = load i32, ptr %29, align 4, !tbaa !100
  %31 = icmp eq i32 %27, %30
  br i1 %31, label %32, label %33

32:                                               ; preds = %21
  store i32 1, ptr %4, align 4
  store i32 1, ptr %11, align 4
  br label %86

33:                                               ; preds = %21
  %34 = load ptr, ptr %7, align 8, !tbaa !15
  %35 = getelementptr inbounds nuw %struct.If_Cut_t_, ptr %34, i32 0, i32 8
  %36 = load i32, ptr %9, align 4, !tbaa !8
  %37 = sext i32 %36 to i64
  %38 = getelementptr inbounds [0 x i32], ptr %35, i64 0, i64 %37
  %39 = load i32, ptr %38, align 4, !tbaa !8
  %40 = load ptr, ptr %6, align 8, !tbaa !99
  %41 = getelementptr inbounds nuw %struct.If_Obj_t_, ptr %40, i32 0, i32 1
  %42 = load i32, ptr %41, align 4, !tbaa !100
  %43 = icmp sgt i32 %39, %42
  br i1 %43, label %44, label %45

44:                                               ; preds = %33
  br label %50

45:                                               ; preds = %33
  br label %46

46:                                               ; preds = %45
  br label %47

47:                                               ; preds = %46
  %48 = load i32, ptr %9, align 4, !tbaa !8
  %49 = add nsw i32 %48, 1
  store i32 %49, ptr %9, align 4, !tbaa !8
  br label %12, !llvm.loop !126

50:                                               ; preds = %44, %12
  %51 = load ptr, ptr %6, align 8, !tbaa !99
  %52 = call i32 @If_ObjIsCi(ptr noundef %51)
  %53 = icmp ne i32 %52, 0
  br i1 %53, label %54, label %55

54:                                               ; preds = %50
  store i32 0, ptr %4, align 4
  store i32 1, ptr %11, align 4
  br label %86

55:                                               ; preds = %50
  %56 = load ptr, ptr %6, align 8, !tbaa !99
  store ptr %56, ptr %8, align 8, !tbaa !99
  br label %57

57:                                               ; preds = %81, %55
  %58 = load ptr, ptr %8, align 8, !tbaa !99
  %59 = icmp ne ptr %58, null
  br i1 %59, label %60, label %85

60:                                               ; preds = %57
  %61 = load ptr, ptr %5, align 8, !tbaa !35
  %62 = load ptr, ptr %8, align 8, !tbaa !99
  %63 = call ptr @If_ObjFanin0(ptr noundef %62)
  %64 = load ptr, ptr %7, align 8, !tbaa !15
  %65 = call i32 @If_CutGetCone_rec(ptr noundef %61, ptr noundef %63, ptr noundef %64)
  store i32 %65, ptr %10, align 4, !tbaa !8
  %66 = load i32, ptr %10, align 4, !tbaa !8
  %67 = icmp ne i32 %66, 0
  br i1 %67, label %68, label %76

68:                                               ; preds = %60
  %69 = load ptr, ptr %5, align 8, !tbaa !35
  %70 = load ptr, ptr %8, align 8, !tbaa !99
  %71 = call ptr @If_ObjFanin1(ptr noundef %70)
  %72 = load ptr, ptr %7, align 8, !tbaa !15
  %73 = call i32 @If_CutGetCone_rec(ptr noundef %69, ptr noundef %71, ptr noundef %72)
  %74 = load i32, ptr %10, align 4, !tbaa !8
  %75 = and i32 %74, %73
  store i32 %75, ptr %10, align 4, !tbaa !8
  br label %76

76:                                               ; preds = %68, %60
  %77 = load i32, ptr %10, align 4, !tbaa !8
  %78 = icmp ne i32 %77, 0
  br i1 %78, label %79, label %80

79:                                               ; preds = %76
  store i32 1, ptr %4, align 4
  store i32 1, ptr %11, align 4
  br label %86

80:                                               ; preds = %76
  br label %81

81:                                               ; preds = %80
  %82 = load ptr, ptr %8, align 8, !tbaa !99
  %83 = getelementptr inbounds nuw %struct.If_Obj_t_, ptr %82, i32 0, i32 8
  %84 = load ptr, ptr %83, align 8, !tbaa !127
  store ptr %84, ptr %8, align 8, !tbaa !99
  br label %57, !llvm.loop !128

85:                                               ; preds = %57
  store i32 0, ptr %4, align 4
  store i32 1, ptr %11, align 4
  br label %86

86:                                               ; preds = %85, %79, %54, %32
  call void @llvm.lifetime.end.p0(i64 4, ptr %10) #9
  call void @llvm.lifetime.end.p0(i64 4, ptr %9) #9
  call void @llvm.lifetime.end.p0(i64 8, ptr %8) #9
  %87 = load i32, ptr %4, align 4
  ret i32 %87
}