; Function Attrs: nofree nosync nounwind memory(read, inaccessiblemem: none) uwtable
define range(i32 0, 2) i32 @If_CutGetCone_rec(ptr noundef readnone %0, ptr noundef readonly captures(none) %1, ptr noundef readonly %2) local_unnamed_addr #9 {
  %4 = getelementptr inbounds nuw i8, ptr %2, i64 28
  %5 = load i64, ptr %4, align 4
  %6 = and i64 %5, 4278190080
  %.not36 = icmp eq i64 %6, 0
  br i1 %.not36, label %._crit_edge, label %.lr.ph

.lr.ph:                                           ; preds = %3
  %7 = lshr i64 %5, 24
  %8 = getelementptr inbounds nuw i8, ptr %2, i64 36
  %9 = getelementptr inbounds nuw i8, ptr %1, i64 4
  %10 = load i32, ptr %9, align 4, !tbaa !96
  %wide.trip.count = and i64 %7, 255
  br label %11

11:                                               ; preds = %15, %.lr.ph
  %indvars.iv = phi i64 [ 0, %.lr.ph ], [ %indvars.iv.next, %15 ]
  %12 = getelementptr inbounds nuw [0 x i32], ptr %8, i64 0, i64 %indvars.iv
  %13 = load i32, ptr %12, align 4, !tbaa !14
  %14 = icmp eq i32 %13, %10
  br i1 %14, label %.loopexit, label %15

15:                                               ; preds = %11
  %16 = icmp sgt i32 %13, %10
  %indvars.iv.next = add nuw nsw i64 %indvars.iv, 1
  %exitcond.not = icmp eq i64 %indvars.iv.next, %wide.trip.count
  %or.cond = select i1 %16, i1 true, i1 %exitcond.not
  br i1 %or.cond, label %._crit_edge, label %11, !llvm.loop !121

._crit_edge:                                      ; preds = %15, %3
  %.val = load i32, ptr %1, align 8
  %17 = and i32 %.val, 15
  %.not = icmp eq i32 %17, 2
  br i1 %.not, label %.loopexit, label %.preheader

.preheader:                                       ; preds = %._crit_edge, %.critedge
  %.02335 = phi ptr [ %25, %.critedge ], [ %1, %._crit_edge ]
  %18 = getelementptr i8, ptr %.02335, i64 24
  %.023.val = load ptr, ptr %18, align 8, !tbaa !122
  %19 = tail call i32 @If_CutGetCone_rec(ptr noundef %0, ptr noundef %.023.val, ptr noundef %2)
  %.not29 = icmp eq i32 %19, 0
  br i1 %.not29, label %.critedge, label %20

20:                                               ; preds = %.preheader
  %21 = getelementptr i8, ptr %.02335, i64 32
  %.023.val31 = load ptr, ptr %21, align 8, !tbaa !123
  %22 = tail call i32 @If_CutGetCone_rec(ptr noundef %0, ptr noundef %.023.val31, ptr noundef %2)
  %23 = icmp eq i32 %22, 0
  br i1 %23, label %.critedge, label %.loopexit

.critedge:                                        ; preds = %.preheader, %20
  %24 = getelementptr inbounds nuw i8, ptr %.02335, i64 40
  %25 = load ptr, ptr %24, align 8, !tbaa !124
  %.not28 = icmp eq ptr %25, null
  br i1 %.not28, label %.loopexit, label %.preheader, !llvm.loop !125

.loopexit:                                        ; preds = %11, %.critedge, %20, %._crit_edge
  %.024 = phi i32 [ 0, %._crit_edge ], [ 0, %.critedge ], [ 1, %20 ], [ 1, %11 ]
  ret i32 %.024
}